target datalayout = "e-m:e-p270:32:32-p271:32:32-p272:64:64-i64:64-i128:128-f80:128-n8:16:32:64-S128"
target triple = "x86_64-pc-linux-gnu"

%"class.std::__cxx11::basic_string" = type { %"struct.std::__cxx11::basic_string<char>::_Alloc_hider", i64, %union.anon }
%"struct.std::__cxx11::basic_string<char>::_Alloc_hider" = type { ptr }
%union.anon = type { i64, [8 x i8] }
%"class.Json::Value" = type { %"union.Json::Value::ValueHolder", %struct.anon, %"class.Json::Value::Comments", i64, i64 }
%"union.Json::Value::ValueHolder" = type { i64 }
%struct.anon = type { i16, [2 x i8] }
%"class.Json::Value::Comments" = type { %"class.std::unique_ptr" }
%"class.std::unique_ptr" = type { %"struct.std::__uniq_ptr_data" }
%"struct.std::__uniq_ptr_data" = type { %"class.std::__uniq_ptr_impl" }
%"class.std::__uniq_ptr_impl" = type { %"class.std::tuple" }
%"class.std::tuple" = type { %"struct.std::_Tuple_impl" }
%"struct.std::_Tuple_impl" = type { %"struct.std::_Head_base.1" }
%"struct.std::_Head_base.1" = type { ptr }
%"struct.(anonymous namespace)::CompileData::IncludeEntry" = type { %"class.(anonymous namespace)::JBT", i8, [7 x i8] }
%"class.(anonymous namespace)::JBT" = type <{ %"class.std::__cxx11::basic_string", %"class.(anonymous namespace)::JBTIndex", [4 x i8] }>
%"class.(anonymous namespace)::JBTIndex" = type { i32 }

@.str.37 = private unnamed_addr constant [10 x i8] c"backtrace\00", align 1
@.str.45 = private unnamed_addr constant [5 x i8] c"path\00", align 1
@.str.91 = private unnamed_addr constant [9 x i8] c"isSystem\00", align 1

; Function Attrs: mustprogress nounwind uwtable
define internal noundef zeroext i1 @_ZNK12_GLOBAL__N_18JBTIndexcvbEv(ptr noundef nonnull align 4 dereferenceable(4) %0) #6 align 2 {
  %2 = alloca ptr, align 8
  store ptr %0, ptr %2, align 8, !tbaa !1009
  %3 = load ptr, ptr %2, align 8
  %4 = getelementptr inbounds nuw %"class.(anonymous namespace)::JBTIndex", ptr %3, i32 0, i32 0
  %5 = load i32, ptr %4, align 4, !tbaa !1023
  %6 = icmp ne i32 %5, -1
  ret i1 %6
}

; Function Attrs: mustprogress uwtable
define internal void @_ZN12_GLOBAL__N_16Target12AddBacktraceERN4Json5ValueENS_8JBTIndexE(ptr noundef nonnull align 8 dereferenceable(728) %0, ptr noundef nonnull align 8 dereferenceable(40) %1, i32 %2) #5 align 2 personality ptr @__gxx_personality_v0 {
  %4 = alloca %"class.(anonymous namespace)::JBTIndex", align 4
  %5 = alloca ptr, align 8
  %6 = alloca ptr, align 8
  %7 = alloca %"class.Json::Value", align 8
  %8 = alloca ptr, align 8
  %9 = alloca i32, align 4
  %10 = getelementptr inbounds nuw %"class.(anonymous namespace)::JBTIndex", ptr %4, i32 0, i32 0
  store i32 %2, ptr %10, align 4
  store ptr %0, ptr %5, align 8, !tbaa !512
  store ptr %1, ptr %6, align 8, !tbaa !1019
  %11 = call noundef zeroext i1 @_ZNK12_GLOBAL__N_18JBTIndexcvbEv(ptr noundef nonnull align 4 dereferenceable(4) %4)
  br i1 %11, label %12, label %23

12:                                               ; preds = %3
  call void @llvm.lifetime.start.p0(i64 40, ptr %7) #3
  %13 = getelementptr inbounds nuw %"class.(anonymous namespace)::JBTIndex", ptr %4, i32 0, i32 0
  %14 = load i32, ptr %13, align 4, !tbaa !1023
  call void @_ZN4Json5ValueC1Ej(ptr noundef nonnull align 8 dereferenceable(40) %7, i32 noundef %14)
  %15 = load ptr, ptr %6, align 8, !tbaa !1019
  %16 = invoke noundef nonnull align 8 dereferenceable(40) ptr @_ZN4Json5ValueixEPKc(ptr noundef nonnull align 8 dereferenceable(40) %15, ptr noundef @.str.37)
          to label %17 unwind label %19

17:                                               ; preds = %12
  %18 = call noundef nonnull align 8 dereferenceable(40) ptr @_ZN4Json5ValueaSEOS0_(ptr noundef nonnull align 8 dereferenceable(40) %16, ptr noundef nonnull align 8 dereferenceable(40) %7) #3
  call void @_ZN4Json5ValueD1Ev(ptr noundef nonnull align 8 dereferenceable(40) %7) #3
  call void @llvm.lifetime.end.p0(i64 40, ptr %7) #3
  br label %23

19:                                               ; preds = %12
  %20 = landingpad { ptr, i32 }
          cleanup
  %21 = extractvalue { ptr, i32 } %20, 0
  store ptr %21, ptr %8, align 8
  %22 = extractvalue { ptr, i32 } %20, 1
  store i32 %22, ptr %9, align 4
  call void @_ZN4Json5ValueD1Ev(ptr noundef nonnull align 8 dereferenceable(40) %7) #3
  call void @llvm.lifetime.end.p0(i64 40, ptr %7) #3
  br label %24

23:                                               ; preds = %17, %3
  ret void

24:                                               ; preds = %19
  %25 = load ptr, ptr %8, align 8
  %26 = load i32, ptr %9, align 4
  %27 = insertvalue { ptr, i32 } poison, ptr %25, 0
  %28 = insertvalue { ptr, i32 } %27, i32 %26, 1
  resume { ptr, i32 } %28
}

; Function Attrs: mustprogress uwtable
define internal void @_ZN12_GLOBAL__N_16Target11DumpIncludeERKNS_11CompileData12IncludeEntryE(ptr dead_on_unwind noalias writable sret(%"class.Json::Value") align 8 %0, ptr noundef nonnull align 8 dereferenceable(728) %1, ptr noundef nonnull align 8 dereferenceable(41) %2) #5 align 2 personality ptr @__gxx_personality_v0 {
  %4 = alloca ptr, align 8
  %5 = alloca ptr, align 8
  %6 = alloca ptr, align 8
  %7 = alloca i1, align 1
  %8 = alloca %"class.Json::Value", align 8
  %9 = alloca ptr, align 8
  %10 = alloca i32, align 4
  %11 = alloca %"class.Json::Value", align 8
  %12 = alloca %"class.(anonymous namespace)::JBTIndex", align 4
  store ptr %0, ptr %4, align 8
  store ptr %1, ptr %5, align 8, !tbaa !512
  store ptr %2, ptr %6, align 8, !tbaa !985
  %13 = load ptr, ptr %5, align 8
  store i1 false, ptr %7, align 1
  call void @_ZN4Json5ValueC1ENS_9ValueTypeE(ptr noundef nonnull align 8 dereferenceable(40) %0, i32 noundef 7)
  call void @llvm.lifetime.start.p0(i64 40, ptr %8) #3
  %14 = load ptr, ptr %6, align 8, !tbaa !985
  %15 = getelementptr inbounds nuw %"struct.(anonymous namespace)::CompileData::IncludeEntry", ptr %14, i32 0, i32 0
  %16 = getelementptr inbounds nuw %"class.(anonymous namespace)::JBT", ptr %15, i32 0, i32 0
  invoke void @_ZN4Json5ValueC1ERKNSt7__cxx1112basic_stringIcSt11char_traitsIcESaIcEEE(ptr noundef nonnull align 8 dereferenceable(40) %8, ptr noundef nonnull align 8 dereferenceable(32) %16)
          to label %17 unwind label %30

17:                                               ; preds = %3
  %18 = invoke noundef nonnull align 8 dereferenceable(40) ptr @_ZN4Json5ValueixEPKc(ptr noundef nonnull align 8 dereferenceable(40) %0, ptr noundef @.str.45)
          to label %19 unwind label %34

19:                                               ; preds = %17
  %20 = call noundef nonnull align 8 dereferenceable(40) ptr @_ZN4Json5ValueaSEOS0_(ptr noundef nonnull align 8 dereferenceable(40) %18, ptr noundef nonnull align 8 dereferenceable(40) %8) #3
  call void @_ZN4Json5ValueD1Ev(ptr noundef nonnull align 8 dereferenceable(40) %8) #3
  call void @llvm.lifetime.end.p0(i64 40, ptr %8) #3
  %21 = load ptr, ptr %6, align 8, !tbaa !985
  %22 = getelementptr inbounds nuw %"struct.(anonymous namespace)::CompileData::IncludeEntry", ptr %21, i32 0, i32 1
  %23 = load i8, ptr %22, align 8, !tbaa !1436, !range !277, !noundef !278
  %24 = trunc i8 %23 to i1
  br i1 %24, label %25, label %48

25:                                               ; preds = %19
  call void @llvm.lifetime.start.p0(i64 40, ptr %11) #3
  invoke void @_ZN4Json5ValueC1Eb(ptr noundef nonnull align 8 dereferenceable(40) %11, i1 noundef zeroext true)
          to label %26 unwind label %39

26:                                               ; preds = %25
  %27 = invoke noundef nonnull align 8 dereferenceable(40) ptr @_ZN4Json5ValueixEPKc(ptr noundef nonnull align 8 dereferenceable(40) %0, ptr noundef @.str.91)
          to label %28 unwind label %43

28:                                               ; preds = %26
  %29 = call noundef nonnull align 8 dereferenceable(40) ptr @_ZN4Json5ValueaSEOS0_(ptr noundef nonnull align 8 dereferenceable(40) %27, ptr noundef nonnull align 8 dereferenceable(40) %11) #3
  call void @_ZN4Json5ValueD1Ev(ptr noundef nonnull align 8 dereferenceable(40) %11) #3
  call void @llvm.lifetime.end.p0(i64 40, ptr %11) #3
  br label %48

30:                                               ; preds = %3
  %31 = landingpad { ptr, i32 }
          cleanup
  %32 = extractvalue { ptr, i32 } %31, 0
  store ptr %32, ptr %9, align 8
  %33 = extractvalue { ptr, i32 } %31, 1
  store i32 %33, ptr %10, align 4
  br label %38

34:                                               ; preds = %17
  %35 = landingpad { ptr, i32 }
          cleanup
  %36 = extractvalue { ptr, i32 } %35, 0
  store ptr %36, ptr %9, align 8
  %37 = extractvalue { ptr, i32 } %35, 1
  store i32 %37, ptr %10, align 4
  call void @_ZN4Json5ValueD1Ev(ptr noundef nonnull align 8 dereferenceable(40) %8) #3
  br label %38

38:                                               ; preds = %34, %30
  call void @llvm.lifetime.end.p0(i64 40, ptr %8) #3
  br label %62

39:                                               ; preds = %25
  %40 = landingpad { ptr, i32 }
          cleanup
  %41 = extractvalue { ptr, i32 } %40, 0
  store ptr %41, ptr %9, align 8
  %42 = extractvalue { ptr, i32 } %40, 1
  store i32 %42, ptr %10, align 4
  br label %47

43:                                               ; preds = %26
  %44 = landingpad { ptr, i32 }
          cleanup
  %45 = extractvalue { ptr, i32 } %44, 0
  store ptr %45, ptr %9, align 8
  %46 = extractvalue { ptr, i32 } %44, 1
  store i32 %46, ptr %10, align 4
  call void @_ZN4Json5ValueD1Ev(ptr noundef nonnull align 8 dereferenceable(40) %11) #3
  br label %47

47:                                               ; preds = %43, %39
  call void @llvm.lifetime.end.p0(i64 40, ptr %11) #3
  br label %62

48:                                               ; preds = %28, %19
  %49 = load ptr, ptr %6, align 8, !tbaa !985
  %50 = getelementptr inbounds nuw %"struct.(anonymous namespace)::CompileData::IncludeEntry", ptr %49, i32 0, i32 0
  %51 = getelementptr inbounds nuw %"class.(anonymous namespace)::JBT", ptr %50, i32 0, i32 1
  call void @llvm.memcpy.p0.p0.i64(ptr align 4 %12, ptr align 8 %51, i64 4, i1 false), !tbaa.struct !1233
  %52 = getelementptr inbounds nuw %"class.(anonymous namespace)::JBTIndex", ptr %12, i32 0, i32 0
  %53 = load i32, ptr %52, align 4
  invoke void @_ZN12_GLOBAL__N_16Target12AddBacktraceERN4Json5ValueENS_8JBTIndexE(ptr noundef nonnull align 8 dereferenceable(728) %13, ptr noundef nonnull align 8 dereferenceable(40) %0, i32 %53)
          to label %54 unwind label %56

54:                                               ; preds = %48
  store i1 true, ptr %7, align 1
  %55 = load i1, ptr %7, align 1
  br i1 %55, label %61, label %60

56:                                               ; preds = %48
  %57 = landingpad { ptr, i32 }
          cleanup
  %58 = extractvalue { ptr, i32 } %57, 0
  store ptr %58, ptr %9, align 8
  %59 = extractvalue { ptr, i32 } %57, 1
  store i32 %59, ptr %10, align 4
  br label %62

60:                                               ; preds = %54
  call void @_ZN4Json5ValueD1Ev(ptr noundef nonnull align 8 dereferenceable(40) %0) #3
  br label %61

61:                                               ; preds = %60, %54
  ret void

62:                                               ; preds = %56, %47, %38
  call void @_ZN4Json5ValueD1Ev(ptr noundef nonnull align 8 dereferenceable(40) %0) #3
  br label %63

63:                                               ; preds = %62
  %64 = load ptr, ptr %9, align 8
  %65 = load i32, ptr %10, align 4
  %66 = insertvalue { ptr, i32 } poison, ptr %64, 0
  %67 = insertvalue { ptr, i32 } %66, i32 %65, 1
  resume { ptr, i32 } %67
}