; Function Attrs: mustprogress uwtable
define internal fastcc void @_ZN12_GLOBAL__N_16Target11DumpIncludeERKNS_11CompileData12IncludeEntryE(ptr dead_on_unwind noalias nonnull writable align 8 %0, ptr noundef nonnull align 8 dereferenceable(41) %1) unnamed_addr #5 align 2 personality ptr @__gxx_personality_v0 {
  %3 = alloca %"class.Json::Value", align 8
  %4 = alloca %"class.Json::Value", align 8
  %5 = alloca %"class.Json::Value", align 8
  tail call void @_ZN4Json5ValueC1ENS_9ValueTypeE(ptr noundef nonnull align 8 dereferenceable(40) %0, i32 noundef 7)
  call void @llvm.lifetime.start.p0(i64 40, ptr nonnull %4) #28
  invoke void @_ZN4Json5ValueC1ERKNSt7__cxx1112basic_stringIcSt11char_traitsIcESaIcEEE(ptr noundef nonnull align 8 dereferenceable(40) %4, ptr noundef nonnull align 8 dereferenceable(32) %1)
          to label %6 unwind label %18

6:                                                ; preds = %2
  %7 = invoke noundef nonnull align 8 dereferenceable(40) ptr @_ZN4Json5ValueixEPKc(ptr noundef nonnull align 8 dereferenceable(40) %0, ptr noundef nonnull @.str.45)
          to label %8 unwind label %20

8:                                                ; preds = %6
  %9 = call noundef nonnull align 8 dereferenceable(40) ptr @_ZN4Json5ValueaSEOS0_(ptr noundef nonnull align 8 dereferenceable(40) %7, ptr noundef nonnull align 8 dereferenceable(40) %4) #28
  call void @_ZN4Json5ValueD1Ev(ptr noundef nonnull align 8 dereferenceable(40) %4) #28
  call void @llvm.lifetime.end.p0(i64 40, ptr nonnull %4) #28
  %10 = getelementptr inbounds nuw i8, ptr %1, i64 40
  %11 = load i8, ptr %10, align 8, !tbaa !662, !range !213, !noundef !214
  %12 = trunc nuw i8 %11 to i1
  br i1 %12, label %13, label %28

13:                                               ; preds = %8
  call void @llvm.lifetime.start.p0(i64 40, ptr nonnull %5) #28
  invoke void @_ZN4Json5ValueC1Eb(ptr noundef nonnull align 8 dereferenceable(40) %5, i1 noundef zeroext true)
          to label %14 unwind label %23

14:                                               ; preds = %13
  %15 = invoke noundef nonnull align 8 dereferenceable(40) ptr @_ZN4Json5ValueixEPKc(ptr noundef nonnull align 8 dereferenceable(40) %0, ptr noundef nonnull @.str.91)
          to label %16 unwind label %25

16:                                               ; preds = %14
  %17 = call noundef nonnull align 8 dereferenceable(40) ptr @_ZN4Json5ValueaSEOS0_(ptr noundef nonnull align 8 dereferenceable(40) %15, ptr noundef nonnull align 8 dereferenceable(40) %5) #28
  call void @_ZN4Json5ValueD1Ev(ptr noundef nonnull align 8 dereferenceable(40) %5) #28
  call void @llvm.lifetime.end.p0(i64 40, ptr nonnull %5) #28
  br label %28

18:                                               ; preds = %2
  %19 = landingpad { ptr, i32 }
          cleanup
  br label %22

20:                                               ; preds = %6
  %21 = landingpad { ptr, i32 }
          cleanup
  call void @_ZN4Json5ValueD1Ev(ptr noundef nonnull align 8 dereferenceable(40) %4) #28
  br label %22

22:                                               ; preds = %20, %18
  %.pn = phi { ptr, i32 } [ %21, %20 ], [ %19, %18 ]
  call void @llvm.lifetime.end.p0(i64 40, ptr nonnull %4) #28
  br label %.body

23:                                               ; preds = %13
  %24 = landingpad { ptr, i32 }
          cleanup
  br label %27

25:                                               ; preds = %14
  %26 = landingpad { ptr, i32 }
          cleanup
  call void @_ZN4Json5ValueD1Ev(ptr noundef nonnull align 8 dereferenceable(40) %5) #28
  br label %27

27:                                               ; preds = %25, %23
  %.pn10 = phi { ptr, i32 } [ %26, %25 ], [ %24, %23 ]
  call void @llvm.lifetime.end.p0(i64 40, ptr nonnull %5) #28
  br label %.body

28:                                               ; preds = %16, %8
  %29 = getelementptr inbounds nuw i8, ptr %1, i64 32
  %.sroa.0.0.copyload = load i32, ptr %29, align 8, !tbaa !167
  %.not.i = icmp eq i32 %.sroa.0.0.copyload, -1
  br i1 %.not.i, label %_ZN12_GLOBAL__N_16Target12AddBacktraceERN4Json5ValueENS_8JBTIndexE.exit, label %30

30:                                               ; preds = %28
  call void @llvm.lifetime.start.p0(i64 40, ptr nonnull %3) #28
  invoke void @_ZN4Json5ValueC1Ej(ptr noundef nonnull align 8 dereferenceable(40) %3, i32 noundef %.sroa.0.0.copyload)
          to label %.noexc unwind label %36

.noexc:                                           ; preds = %30
  %31 = invoke noundef nonnull align 8 dereferenceable(40) ptr @_ZN4Json5ValueixEPKc(ptr noundef nonnull align 8 dereferenceable(40) %0, ptr noundef nonnull @.str.37)
          to label %32 unwind label %34

32:                                               ; preds = %.noexc
  %33 = call noundef nonnull align 8 dereferenceable(40) ptr @_ZN4Json5ValueaSEOS0_(ptr noundef nonnull align 8 dereferenceable(40) %31, ptr noundef nonnull align 8 dereferenceable(40) %3) #28
  call void @_ZN4Json5ValueD1Ev(ptr noundef nonnull align 8 dereferenceable(40) %3) #28
  call void @llvm.lifetime.end.p0(i64 40, ptr nonnull %3) #28
  br label %_ZN12_GLOBAL__N_16Target12AddBacktraceERN4Json5ValueENS_8JBTIndexE.exit

34:                                               ; preds = %.noexc
  %35 = landingpad { ptr, i32 }
          cleanup
  call void @_ZN4Json5ValueD1Ev(ptr noundef nonnull align 8 dereferenceable(40) %3) #28
  call void @llvm.lifetime.end.p0(i64 40, ptr nonnull %3) #28
  br label %.body

36:                                               ; preds = %30
  %37 = landingpad { ptr, i32 }
          cleanup
  br label %.body

_ZN12_GLOBAL__N_16Target12AddBacktraceERN4Json5ValueENS_8JBTIndexE.exit: ; preds = %32, %28
  ret void

.body:                                            ; preds = %36, %34, %27, %22
  %.pn12 = phi { ptr, i32 } [ %.pn10, %27 ], [ %.pn, %22 ], [ %37, %36 ], [ %35, %34 ]
  call void @_ZN4Json5ValueD1Ev(ptr noundef nonnull align 8 dereferenceable(40) %0) #28
  resume { ptr, i32 } %.pn12
}